; Function Attrs: nounwind uwtable
define range(i32 -1, 1) i32 @H5F_get_vfd_handle(ptr noundef readonly captures(none) %0, i64 noundef %1, ptr noundef %2) local_unnamed_addr #2 {
  %4 = load i8, ptr @H5F_init_g, align 1, !tbaa !84, !range !43, !noundef !44
  %5 = trunc nuw i8 %4 to i1
  %6 = load i8, ptr @H5_libterm_g, align 1, !range !43
  %7 = trunc nuw i8 %6 to i1
  %8 = select i1 %5, i1 true, i1 %7
  br i1 %8, label %16, label %9, !prof !85

9:                                                ; preds = %3
  store i8 1, ptr @H5F_init_g, align 1, !tbaa !84
  %10 = tail call i32 @H5F__init_package() #5
  %11 = icmp slt i32 %10, 0
  br i1 %11, label %12, label %._crit_edge

._crit_edge:                                      ; preds = %9
  %.pre = load i8, ptr @H5F_init_g, align 1, !tbaa !84, !range !43
  %.pre5 = load i8, ptr @H5_libterm_g, align 1, !range !43
  %.pre6 = trunc nuw i8 %.pre to i1
  %.pre7 = trunc nuw i8 %.pre5 to i1
  br label %16

12:                                               ; preds = %9
  store i8 0, ptr @H5F_init_g, align 1, !tbaa !84
  %13 = load i64, ptr @H5E_FUNC_g, align 8, !tbaa !86
  %14 = load i64, ptr @H5E_CANTINIT_g, align 8, !tbaa !86
  %15 = tail call i32 (ptr, ptr, i32, i64, i64, ptr, ...) @H5E_printf_stack(ptr noundef nonnull @.str, ptr noundef nonnull @__func__.H5F_get_vfd_handle, i32 noundef 978, i64 noundef %13, i64 noundef %14, ptr noundef nonnull @.str.1) #5
  br label %29

16:                                               ; preds = %._crit_edge, %3
  %.pre-phi8 = phi i1 [ %.pre7, %._crit_edge ], [ %7, %3 ]
  %.pre-phi = phi i1 [ %.pre6, %._crit_edge ], [ %5, %3 ]
  %17 = xor i1 %.pre-phi8, true
  %18 = select i1 %.pre-phi, i1 true, i1 %17
  br i1 %18, label %19, label %29, !prof !85

19:                                               ; preds = %16
  %20 = getelementptr inbounds nuw i8, ptr %0, i64 16
  %21 = load ptr, ptr %20, align 8, !tbaa !31
  %22 = load ptr, ptr %21, align 8, !tbaa !79
  %23 = tail call i32 @H5FD_get_vfd_handle(ptr noundef %22, i64 noundef %1, ptr noundef %2) #5
  %24 = icmp slt i32 %23, 0
  br i1 %24, label %25, label %29

25:                                               ; preds = %19
  %26 = load i64, ptr @H5E_FILE_g, align 8, !tbaa !86
  %27 = load i64, ptr @H5E_CANTGET_g, align 8, !tbaa !86
  %28 = tail call i32 (ptr, ptr, i32, i64, i64, ptr, ...) @H5E_printf_stack(ptr noundef nonnull @.str, ptr noundef nonnull @__func__.H5F_get_vfd_handle, i32 noundef 986, i64 noundef %26, i64 noundef %27, ptr noundef nonnull @.str.4) #5
  br label %29

29:                                               ; preds = %12, %25, %19, %16
  %.0 = phi i32 [ -1, %12 ], [ -1, %25 ], [ 0, %19 ], [ 0, %16 ]
  ret i32 %.0
}